; Function Attrs: inlinehint nounwind uwtable
define internal range(i32 0, 2) i32 @nonzero_float_compactlong_guard(ptr noundef %0, ptr noundef %1) #7 {
  %3 = getelementptr i8, ptr %0, i64 8
  %.val5.i = load ptr, ptr %3, align 8, !tbaa !9
  %.not.i = icmp eq ptr %.val5.i, @PyFloat_Type
  br i1 %.not.i, label %4, label %float_compactlong_guard.exit.thread

4:                                                ; preds = %2
  %5 = tail call double @PyFloat_AsDouble(ptr noundef nonnull %0) #9
  %6 = fcmp uno double %5, 0.000000e+00
  br i1 %6, label %float_compactlong_guard.exit.thread, label %7

7:                                                ; preds = %4
  %8 = getelementptr i8, ptr %1, i64 8
  %.val.i = load ptr, ptr %8, align 8, !tbaa !9
  %.not7.i = icmp eq ptr %.val.i, @PyLong_Type
  br i1 %.not7.i, label %float_compactlong_guard.exit, label %float_compactlong_guard.exit.thread

float_compactlong_guard.exit:                     ; preds = %7
  %9 = getelementptr i8, ptr %1, i64 16
  %.val6.i = load i64, ptr %9, align 8, !tbaa !153
  %10 = icmp ugt i64 %.val6.i, 15
  br i1 %10, label %float_compactlong_guard.exit.thread, label %11

11:                                               ; preds = %float_compactlong_guard.exit
  %12 = tail call i32 @PyLong_IsZero(ptr noundef nonnull %1) #9
  %.not3 = icmp eq i32 %12, 0
  %13 = zext i1 %.not3 to i32
  br label %float_compactlong_guard.exit.thread

float_compactlong_guard.exit.thread:              ; preds = %2, %4, %7, %11, %float_compactlong_guard.exit
  %14 = phi i32 [ 0, %float_compactlong_guard.exit ], [ %13, %11 ], [ 0, %7 ], [ 0, %4 ], [ 0, %2 ]
  ret i32 %14
}